target datalayout = "e-m:e-p270:32:32-p271:32:32-p272:64:64-i64:64-i128:128-f80:128-n8:16:32:64-S128"
target triple = "x86_64-pc-linux-gnu"

%class.Register = type { i32 }
%class.AbstractRegSet = type { i64 }

@_ZL7c_rarg0 = internal constant %class.Register { i32 7 }, align 4
@_ZL7c_rarg1 = internal constant %class.Register { i32 6 }, align 4

; Function Attrs: mustprogress nounwind uwtable
define linkonce_odr hidden void @_ZN14AbstractRegSetI8RegisterEC2Ev(ptr noundef nonnull align 8 dereferenceable(8) %0) unnamed_addr #1 comdat align 2 {
  %2 = alloca ptr, align 8
  store ptr %0, ptr %2, align 8
  %3 = load ptr, ptr %2, align 8
  %4 = getelementptr inbounds %class.AbstractRegSet, ptr %3, i32 0, i32 0
  store i64 0, ptr %4, align 8
  ret void
}

; Function Attrs: mustprogress nounwind uwtable
define linkonce_odr hidden void @_ZN14MacroAssembler28pop_call_clobbered_registersEb(ptr noundef nonnull align 8 dereferenceable(40) %0, i1 noundef zeroext %1) #1 comdat align 2 {
  %3 = alloca ptr, align 8
  %4 = alloca i8, align 1
  %5 = alloca %class.AbstractRegSet, align 8
  store ptr %0, ptr %3, align 8
  %6 = zext i1 %1 to i8
  store i8 %6, ptr %4, align 1
  %7 = load ptr, ptr %3, align 8
  call void @_ZN14AbstractRegSetI8RegisterEC2Ev(ptr noundef nonnull align 8 dereferenceable(8) %5)
  %8 = load i8, ptr %4, align 1
  %9 = trunc i8 %8 to i1
  %10 = getelementptr inbounds %class.AbstractRegSet, ptr %5, i32 0, i32 0
  %11 = load i64, ptr %10, align 8
  call void @_ZN14MacroAssembler35pop_call_clobbered_registers_exceptE14AbstractRegSetI8RegisterEb(ptr noundef nonnull align 8 dereferenceable(40) %7, i64 %11, i1 noundef zeroext %9)
  ret void
}

; Function Attrs: mustprogress nounwind uwtable
define linkonce_odr hidden void @_Z26assert_different_registersI8RegisterJS0_EEvT_DpT0_(i32 %0, i32 %1) #1 comdat {
  %3 = alloca %class.Register, align 4
  %4 = alloca %class.Register, align 4
  %5 = getelementptr inbounds %class.Register, ptr %3, i32 0, i32 0
  store i32 %0, ptr %5, align 4
  %6 = getelementptr inbounds %class.Register, ptr %4, i32 0, i32 0
  store i32 %1, ptr %6, align 4
  ret void
}

; Function Attrs: mustprogress nounwind uwtable
define linkonce_odr hidden noundef i32 @_ZNK8RegistereqES_(ptr noundef nonnull align 4 dereferenceable(4) %0, i32 %1) #1 comdat align 2 {
  %3 = alloca %class.Register, align 4
  %4 = alloca ptr, align 8
  %5 = getelementptr inbounds %class.Register, ptr %3, i32 0, i32 0
  store i32 %1, ptr %5, align 4
  store ptr %0, ptr %4, align 8
  %6 = load ptr, ptr %4, align 8
  %7 = getelementptr inbounds %class.Register, ptr %6, i32 0, i32 0
  %8 = load i32, ptr %7, align 4
  %9 = getelementptr inbounds %class.Register, ptr %3, i32 0, i32 0
  %10 = load i32, ptr %9, align 4
  %11 = icmp eq i32 %8, %10
  %12 = zext i1 %11 to i32
  ret i32 %12
}

; Function Attrs: mustprogress nounwind uwtable
define linkonce_odr hidden void @_ZN14MacroAssembler29push_call_clobbered_registersEb(ptr noundef nonnull align 8 dereferenceable(40) %0, i1 noundef zeroext %1) #1 comdat align 2 {
  %3 = alloca ptr, align 8
  %4 = alloca i8, align 1
  %5 = alloca %class.AbstractRegSet, align 8
  store ptr %0, ptr %3, align 8
  %6 = zext i1 %1 to i8
  store i8 %6, ptr %4, align 1
  %7 = load ptr, ptr %3, align 8
  call void @_ZN14AbstractRegSetI8RegisterEC2Ev(ptr noundef nonnull align 8 dereferenceable(8) %5)
  %8 = load i8, ptr %4, align 1
  %9 = trunc i8 %8 to i1
  %10 = getelementptr inbounds %class.AbstractRegSet, ptr %5, i32 0, i32 0
  %11 = load i64, ptr %10, align 8
  call void @_ZN14MacroAssembler36push_call_clobbered_registers_exceptE14AbstractRegSetI8RegisterEb(ptr noundef nonnull align 8 dereferenceable(40) %7, i64 %11, i1 noundef zeroext %9)
  ret void
}

; Function Attrs: mustprogress nounwind uwtable
define hidden void @_ZN21G1BarrierSetAssembler32gen_write_ref_array_post_barrierEP14MacroAssemblerm8RegisterS2_S2_(ptr noundef nonnull align 8 dereferenceable(8) %0, ptr noundef %1, i64 noundef %2, i32 %3, i32 %4, i32 %5) unnamed_addr #1 align 2 {
  %7 = alloca %class.Register, align 4
  %8 = alloca %class.Register, align 4
  %9 = alloca %class.Register, align 4
  %10 = alloca ptr, align 8
  %11 = alloca ptr, align 8
  %12 = alloca i64, align 8
  %13 = alloca %class.Register, align 4
  %14 = alloca %class.Register, align 4
  %15 = alloca %class.Register, align 4
  %16 = alloca %class.Register, align 4
  %17 = alloca %class.Register, align 4
  %18 = alloca %class.Register, align 4
  %19 = alloca %class.Register, align 4
  %20 = alloca %class.Register, align 4
  %21 = alloca %class.Register, align 4
  %22 = alloca %class.Register, align 4
  %23 = alloca %class.Register, align 4
  %24 = alloca %class.Register, align 4
  %25 = alloca %class.Register, align 4
  %26 = getelementptr inbounds %class.Register, ptr %7, i32 0, i32 0
  store i32 %3, ptr %26, align 4
  %27 = getelementptr inbounds %class.Register, ptr %8, i32 0, i32 0
  store i32 %4, ptr %27, align 4
  %28 = getelementptr inbounds %class.Register, ptr %9, i32 0, i32 0
  store i32 %5, ptr %28, align 4
  store ptr %0, ptr %10, align 8
  store ptr %1, ptr %11, align 8
  store i64 %2, ptr %12, align 8
  %29 = load ptr, ptr %11, align 8
  call void @_ZN14MacroAssembler29push_call_clobbered_registersEb(ptr noundef nonnull align 8 dereferenceable(40) %29, i1 noundef zeroext false)
  call void @llvm.memcpy.p0.p0.i64(ptr align 4 %13, ptr align 4 %8, i64 4, i1 false)
  %30 = getelementptr inbounds %class.Register, ptr %13, i32 0, i32 0
  %31 = load i32, ptr %30, align 4
  %32 = call noundef i32 @_ZNK8RegistereqES_(ptr noundef nonnull align 4 dereferenceable(4) @_ZL7c_rarg0, i32 %31)
  %33 = icmp ne i32 %32, 0
  br i1 %33, label %34, label %49

34:                                               ; preds = %6
  call void @llvm.memcpy.p0.p0.i64(ptr align 4 %14, ptr align 4 @_ZL7c_rarg1, i64 4, i1 false)
  call void @llvm.memcpy.p0.p0.i64(ptr align 4 %15, ptr align 4 %7, i64 4, i1 false)
  %35 = getelementptr inbounds %class.Register, ptr %14, i32 0, i32 0
  %36 = load i32, ptr %35, align 4
  %37 = getelementptr inbounds %class.Register, ptr %15, i32 0, i32 0
  %38 = load i32, ptr %37, align 4
  call void @_Z26assert_different_registersI8RegisterJS0_EEvT_DpT0_(i32 %36, i32 %38)
  %39 = load ptr, ptr %11, align 8
  call void @llvm.memcpy.p0.p0.i64(ptr align 4 %16, ptr align 4 @_ZL7c_rarg1, i64 4, i1 false)
  call void @llvm.memcpy.p0.p0.i64(ptr align 4 %17, ptr align 4 %8, i64 4, i1 false)
  %40 = getelementptr inbounds %class.Register, ptr %16, i32 0, i32 0
  %41 = load i32, ptr %40, align 4
  %42 = getelementptr inbounds %class.Register, ptr %17, i32 0, i32 0
  %43 = load i32, ptr %42, align 4
  call void @_ZN9Assembler3movE8RegisterS0_(ptr noundef nonnull align 8 dereferenceable(40) %39, i32 %41, i32 %43)
  %44 = load ptr, ptr %11, align 8
  call void @llvm.memcpy.p0.p0.i64(ptr align 4 %18, ptr align 4 @_ZL7c_rarg0, i64 4, i1 false)
  call void @llvm.memcpy.p0.p0.i64(ptr align 4 %19, ptr align 4 %7, i64 4, i1 false)
  %45 = getelementptr inbounds %class.Register, ptr %18, i32 0, i32 0
  %46 = load i32, ptr %45, align 4
  %47 = getelementptr inbounds %class.Register, ptr %19, i32 0, i32 0
  %48 = load i32, ptr %47, align 4
  call void @_ZN9Assembler3movE8RegisterS0_(ptr noundef nonnull align 8 dereferenceable(40) %44, i32 %46, i32 %48)
  br label %64

49:                                               ; preds = %6
  call void @llvm.memcpy.p0.p0.i64(ptr align 4 %20, ptr align 4 @_ZL7c_rarg0, i64 4, i1 false)
  call void @llvm.memcpy.p0.p0.i64(ptr align 4 %21, ptr align 4 %8, i64 4, i1 false)
  %50 = getelementptr inbounds %class.Register, ptr %20, i32 0, i32 0
  %51 = load i32, ptr %50, align 4
  %52 = getelementptr inbounds %class.Register, ptr %21, i32 0, i32 0
  %53 = load i32, ptr %52, align 4
  call void @_Z26assert_different_registersI8RegisterJS0_EEvT_DpT0_(i32 %51, i32 %53)
  %54 = load ptr, ptr %11, align 8
  call void @llvm.memcpy.p0.p0.i64(ptr align 4 %22, ptr align 4 @_ZL7c_rarg0, i64 4, i1 false)
  call void @llvm.memcpy.p0.p0.i64(ptr align 4 %23, ptr align 4 %7, i64 4, i1 false)
  %55 = getelementptr inbounds %class.Register, ptr %22, i32 0, i32 0
  %56 = load i32, ptr %55, align 4
  %57 = getelementptr inbounds %class.Register, ptr %23, i32 0, i32 0
  %58 = load i32, ptr %57, align 4
  call void @_ZN9Assembler3movE8RegisterS0_(ptr noundef nonnull align 8 dereferenceable(40) %54, i32 %56, i32 %58)
  %59 = load ptr, ptr %11, align 8
  call void @llvm.memcpy.p0.p0.i64(ptr align 4 %24, ptr align 4 @_ZL7c_rarg1, i64 4, i1 false)
  call void @llvm.memcpy.p0.p0.i64(ptr align 4 %25, ptr align 4 %8, i64 4, i1 false)
  %60 = getelementptr inbounds %class.Register, ptr %24, i32 0, i32 0
  %61 = load i32, ptr %60, align 4
  %62 = getelementptr inbounds %class.Register, ptr %25, i32 0, i32 0
  %63 = load i32, ptr %62, align 4
  call void @_ZN9Assembler3movE8RegisterS0_(ptr noundef nonnull align 8 dereferenceable(40) %59, i32 %61, i32 %63)
  br label %64

64:                                               ; preds = %49, %34
  %65 = load ptr, ptr %11, align 8
  call void @_ZN14MacroAssembler12call_VM_leafEPhi(ptr noundef nonnull align 8 dereferenceable(40) %65, ptr noundef @_ZN19G1BarrierSetRuntime26write_ref_array_post_entryEPP12HeapWordImplm, i32 noundef 2)
  %66 = load ptr, ptr %11, align 8
  call void @_ZN14MacroAssembler28pop_call_clobbered_registersEb(ptr noundef nonnull align 8 dereferenceable(40) %66, i1 noundef zeroext false)
  ret void
}