; Function Attrs: mustprogress nounwind uwtable
define hidden void @_ZN21G1BarrierSetAssembler32gen_write_ref_array_post_barrierEP14MacroAssemblerm8RegisterS2_S2_(ptr nocapture nonnull readnone align 8 %0, ptr noundef nonnull %1, i64 %2, i32 %3, i32 %4, i32 %5) unnamed_addr #0 align 2 {
  tail call void @_ZN14MacroAssembler36push_call_clobbered_registers_exceptE14AbstractRegSetI8RegisterEb(ptr noundef nonnull align 8 dereferenceable(40) %1, i64 0, i1 noundef zeroext false) #4
  %.not = icmp eq i32 %4, 7
  br i1 %.not, label %7, label %8

7:                                                ; preds = %6
  tail call void @_ZN9Assembler3movE8RegisterS0_(ptr noundef nonnull align 8 dereferenceable(40) %1, i32 6, i32 7) #4
  tail call void @_ZN9Assembler3movE8RegisterS0_(ptr noundef nonnull align 8 dereferenceable(40) %1, i32 7, i32 %3) #4
  br label %9

8:                                                ; preds = %6
  tail call void @_ZN9Assembler3movE8RegisterS0_(ptr noundef nonnull align 8 dereferenceable(40) %1, i32 7, i32 %3) #4
  tail call void @_ZN9Assembler3movE8RegisterS0_(ptr noundef nonnull align 8 dereferenceable(40) %1, i32 6, i32 %4) #4
  br label %9

9:                                                ; preds = %8, %7
  tail call void @_ZN14MacroAssembler12call_VM_leafEPhi(ptr noundef nonnull align 8 dereferenceable(40) %1, ptr noundef nonnull @_ZN19G1BarrierSetRuntime26write_ref_array_post_entryEPP12HeapWordImplm, i32 noundef 2) #4
  tail call void @_ZN14MacroAssembler35pop_call_clobbered_registers_exceptE14AbstractRegSetI8RegisterEb(ptr noundef nonnull align 8 dereferenceable(40) %1, i64 0, i1 noundef zeroext false) #4
  ret void
}